target datalayout = "e-m:e-p270:32:32-p271:32:32-p272:64:64-i64:64-i128:128-f80:128-n8:16:32:64-S128"
target triple = "x86_64-pc-linux-gnu"

%"struct.std::atomic.6" = type { %"struct.std::__atomic_base.7" }
%"struct.std::__atomic_base.7" = type { i8 }
%"class.std::__cxx11::basic_string" = type { %"struct.std::__cxx11::basic_string<char>::_Alloc_hider", i64, %union.anon }
%"struct.std::__cxx11::basic_string<char>::_Alloc_hider" = type { ptr }
%union.anon = type { i64, [8 x i8] }
%"class.pxrInternal_v0_24__pxrReserved__::TraceCollector::_PerThreadData" = type { %"struct.std::atomic.6", %"struct.std::atomic.8", %"class.pxrInternal_v0_24__pxrReserved__::TraceThreadId", %"class.std::vector" }
%"struct.std::atomic.8" = type { %"struct.std::__atomic_base.9" }
%"struct.std::__atomic_base.9" = type { ptr }
%"class.pxrInternal_v0_24__pxrReserved__::TraceThreadId" = type { %"class.std::__cxx11::basic_string" }
%"class.std::vector" = type { %"struct.std::_Vector_base" }
%"struct.std::_Vector_base" = type { %"struct.std::_Vector_base<pxrInternal_v0_24__pxrReserved__::TraceCollector::_PerThreadData::PyScope, std::allocator<pxrInternal_v0_24__pxrReserved__::TraceCollector::_PerThreadData::PyScope>>::_Vector_impl" }
%"struct.std::_Vector_base<pxrInternal_v0_24__pxrReserved__::TraceCollector::_PerThreadData::PyScope, std::allocator<pxrInternal_v0_24__pxrReserved__::TraceCollector::_PerThreadData::PyScope>>::_Vector_impl" = type { %"struct.std::_Vector_base<pxrInternal_v0_24__pxrReserved__::TraceCollector::_PerThreadData::PyScope, std::allocator<pxrInternal_v0_24__pxrReserved__::TraceCollector::_PerThreadData::PyScope>>::_Vector_impl_data" }
%"struct.std::_Vector_base<pxrInternal_v0_24__pxrReserved__::TraceCollector::_PerThreadData::PyScope, std::allocator<pxrInternal_v0_24__pxrReserved__::TraceCollector::_PerThreadData::PyScope>>::_Vector_impl_data" = type { ptr, ptr, ptr }
%"class.pxrInternal_v0_24__pxrReserved__::TraceKey" = type { ptr }
%"class.pxrInternal_v0_24__pxrReserved__::TraceEventList" = type { %"class.pxrInternal_v0_24__pxrReserved__::TraceEventContainer", %"class.std::__cxx11::list", %"class.pxrInternal_v0_24__pxrReserved__::TraceDataBuffer" }
%"class.pxrInternal_v0_24__pxrReserved__::TraceEventContainer" = type { ptr, ptr, ptr, i64 }
%"class.std::__cxx11::list" = type { %"class.std::__cxx11::_List_base" }
%"class.std::__cxx11::_List_base" = type { %"struct.std::__cxx11::_List_base<std::unordered_set<pxrInternal_v0_24__pxrReserved__::TraceDynamicKey, pxrInternal_v0_24__pxrReserved__::TraceDynamicKey::HashFunctor>, std::allocator<std::unordered_set<pxrInternal_v0_24__pxrReserved__::TraceDynamicKey, pxrInternal_v0_24__pxrReserved__::TraceDynamicKey::HashFunctor>>>::_List_impl" }
%"struct.std::__cxx11::_List_base<std::unordered_set<pxrInternal_v0_24__pxrReserved__::TraceDynamicKey, pxrInternal_v0_24__pxrReserved__::TraceDynamicKey::HashFunctor>, std::allocator<std::unordered_set<pxrInternal_v0_24__pxrReserved__::TraceDynamicKey, pxrInternal_v0_24__pxrReserved__::TraceDynamicKey::HashFunctor>>>::_List_impl" = type { %"struct.std::__detail::_List_node_header" }
%"struct.std::__detail::_List_node_header" = type { %"struct.std::__detail::_List_node_base", i64 }
%"struct.std::__detail::_List_node_base" = type { ptr, ptr }
%"class.pxrInternal_v0_24__pxrReserved__::TraceDataBuffer" = type { %"class.pxrInternal_v0_24__pxrReserved__::TraceDataBuffer::Allocator" }
%"class.pxrInternal_v0_24__pxrReserved__::TraceDataBuffer::Allocator" = type { ptr, ptr, %"class.std::deque", i64 }
%"class.std::deque" = type { %"class.std::_Deque_base" }
%"class.std::_Deque_base" = type { %"struct.std::_Deque_base<std::unique_ptr<unsigned char[]>, std::allocator<std::unique_ptr<unsigned char[]>>>::_Deque_impl" }
%"struct.std::_Deque_base<std::unique_ptr<unsigned char[]>, std::allocator<std::unique_ptr<unsigned char[]>>>::_Deque_impl" = type { %"struct.std::_Deque_base<std::unique_ptr<unsigned char[]>, std::allocator<std::unique_ptr<unsigned char[]>>>::_Deque_impl_data" }
%"struct.std::_Deque_base<std::unique_ptr<unsigned char[]>, std::allocator<std::unique_ptr<unsigned char[]>>>::_Deque_impl_data" = type { ptr, i64, %"struct.std::_Deque_iterator", %"struct.std::_Deque_iterator" }
%"struct.std::_Deque_iterator" = type { ptr, ptr, ptr, ptr }
%"class.pxrInternal_v0_24__pxrReserved__::TraceEventContainer::_Node" = type { %union.anon.51 }
%union.anon.51 = type { %struct.anon.52 }
%struct.anon.52 = type { ptr, ptr, ptr, ptr }
%"class.pxrInternal_v0_24__pxrReserved__::TraceEvent" = type { %"class.pxrInternal_v0_24__pxrReserved__::TraceKey", i32, i8, i8, i64, %"union.std::aligned_storage<8, 8>::type" }
%"union.std::aligned_storage<8, 8>::type" = type { [8 x i8] }

; Function Attrs: mustprogress nounwind uwtable
define linkonce_odr noundef i64 @_ZN32pxrInternal_v0_24__pxrReserved__15ArchGetTickTimeEv() #5 comdat {
  %1 = call i64 @llvm.x86.rdtsc()
  ret i64 %1
}

; Function Attrs: mustprogress nounwind uwtable
define linkonce_odr noundef zeroext i1 @_ZNK32pxrInternal_v0_24__pxrReserved__19TraceEventContainer5_Node6IsFullEv(ptr noundef nonnull align 8 dereferenceable(32) %0) #5 comdat align 2 {
  %2 = alloca ptr, align 8
  store ptr %0, ptr %2, align 8
  %3 = load ptr, ptr %2, align 8
  %4 = getelementptr inbounds nuw %"class.pxrInternal_v0_24__pxrReserved__::TraceEventContainer::_Node", ptr %3, i32 0, i32 0
  %5 = getelementptr inbounds nuw %struct.anon.52, ptr %4, i32 0, i32 0
  %6 = load ptr, ptr %5, align 8
  %7 = getelementptr inbounds nuw %"class.pxrInternal_v0_24__pxrReserved__::TraceEventContainer::_Node", ptr %3, i32 0, i32 0
  %8 = getelementptr inbounds nuw %struct.anon.52, ptr %7, i32 0, i32 1
  %9 = load ptr, ptr %8, align 8
  %10 = icmp eq ptr %6, %9
  ret i1 %10
}

; Function Attrs: mustprogress nounwind uwtable
define linkonce_odr void @_ZN32pxrInternal_v0_24__pxrReserved__19TraceEventContainer5_Node15ClaimEventEntryEv(ptr noundef nonnull align 8 dereferenceable(32) %0) #5 comdat align 2 {
  %2 = alloca ptr, align 8
  store ptr %0, ptr %2, align 8
  %3 = load ptr, ptr %2, align 8
  %4 = getelementptr inbounds nuw %"class.pxrInternal_v0_24__pxrReserved__::TraceEventContainer::_Node", ptr %3, i32 0, i32 0
  %5 = getelementptr inbounds nuw %struct.anon.52, ptr %4, i32 0, i32 0
  %6 = load ptr, ptr %5, align 8
  %7 = getelementptr inbounds %"class.pxrInternal_v0_24__pxrReserved__::TraceEvent", ptr %6, i32 1
  store ptr %7, ptr %5, align 8
  ret void
}

; Function Attrs: mustprogress nounwind uwtable
define linkonce_odr void @_ZN32pxrInternal_v0_24__pxrReserved__10TraceEventC2ENS0_6EndTagERKNS_8TraceKeyEj(ptr noundef nonnull align 8 dereferenceable(32) %0, i32 noundef %1, ptr noundef nonnull align 8 dereferenceable(8) %2, i32 noundef %3) unnamed_addr #5 comdat align 2 {
  %5 = alloca ptr, align 8
  %6 = alloca i32, align 4
  %7 = alloca ptr, align 8
  %8 = alloca i32, align 4
  store ptr %0, ptr %5, align 8
  store i32 %1, ptr %6, align 4
  store ptr %2, ptr %7, align 8
  store i32 %3, ptr %8, align 4
  %9 = load ptr, ptr %5, align 8
  %10 = getelementptr inbounds nuw %"class.pxrInternal_v0_24__pxrReserved__::TraceEvent", ptr %9, i32 0, i32 0
  %11 = load ptr, ptr %7, align 8
  call void @llvm.memcpy.p0.p0.i64(ptr align 8 %10, ptr align 8 %11, i64 8, i1 false)
  %12 = getelementptr inbounds nuw %"class.pxrInternal_v0_24__pxrReserved__::TraceEvent", ptr %9, i32 0, i32 1
  %13 = load i32, ptr %8, align 4
  store i32 %13, ptr %12, align 8
  %14 = getelementptr inbounds nuw %"class.pxrInternal_v0_24__pxrReserved__::TraceEvent", ptr %9, i32 0, i32 3
  store i8 1, ptr %14, align 1
  %15 = getelementptr inbounds nuw %"class.pxrInternal_v0_24__pxrReserved__::TraceEvent", ptr %9, i32 0, i32 4
  %16 = call noundef i64 @_ZN32pxrInternal_v0_24__pxrReserved__15ArchGetTickTimeEv()
  store i64 %16, ptr %15, align 8
  ret void
}

; Function Attrs: mustprogress uwtable
define linkonce_odr noundef nonnull align 8 dereferenceable(32) ptr @_ZN32pxrInternal_v0_24__pxrReserved__19TraceEventContainer12emplace_backIJNS_10TraceEvent6EndTagERKNS_8TraceKeyERjEEERS2_DpOT_(ptr noundef nonnull align 8 dereferenceable(32) %0, ptr noundef nonnull align 4 dereferenceable(4) %1, ptr noundef nonnull align 8 dereferenceable(8) %2, ptr noundef nonnull align 4 dereferenceable(4) %3) #4 comdat align 2 {
  %5 = alloca ptr, align 8
  %6 = alloca ptr, align 8
  %7 = alloca ptr, align 8
  %8 = alloca ptr, align 8
  %9 = alloca ptr, align 8
  store ptr %0, ptr %5, align 8
  store ptr %1, ptr %6, align 8
  store ptr %2, ptr %7, align 8
  store ptr %3, ptr %8, align 8
  %10 = load ptr, ptr %5, align 8
  %11 = getelementptr inbounds nuw %"class.pxrInternal_v0_24__pxrReserved__::TraceEventContainer", ptr %10, i32 0, i32 0
  %12 = load ptr, ptr %11, align 8
  %13 = getelementptr inbounds %"class.pxrInternal_v0_24__pxrReserved__::TraceEvent", ptr %12, i32 1
  store ptr %13, ptr %11, align 8
  %14 = load ptr, ptr %6, align 8
  %15 = load i32, ptr %14, align 4
  %16 = load ptr, ptr %7, align 8
  %17 = load ptr, ptr %8, align 8
  %18 = load i32, ptr %17, align 4
  call void @_ZN32pxrInternal_v0_24__pxrReserved__10TraceEventC2ENS0_6EndTagERKNS_8TraceKeyEj(ptr noundef nonnull align 8 dereferenceable(32) %12, i32 noundef %15, ptr noundef nonnull align 8 dereferenceable(8) %16, i32 noundef %18)
  store ptr %12, ptr %9, align 8
  %19 = getelementptr inbounds nuw %"class.pxrInternal_v0_24__pxrReserved__::TraceEventContainer", ptr %10, i32 0, i32 2
  %20 = load ptr, ptr %19, align 8
  call void @_ZN32pxrInternal_v0_24__pxrReserved__19TraceEventContainer5_Node15ClaimEventEntryEv(ptr noundef nonnull align 8 dereferenceable(32) %20)
  %21 = getelementptr inbounds nuw %"class.pxrInternal_v0_24__pxrReserved__::TraceEventContainer", ptr %10, i32 0, i32 2
  %22 = load ptr, ptr %21, align 8
  %23 = call noundef zeroext i1 @_ZNK32pxrInternal_v0_24__pxrReserved__19TraceEventContainer5_Node6IsFullEv(ptr noundef nonnull align 8 dereferenceable(32) %22)
  br i1 %23, label %24, label %25

24:                                               ; preds = %4
  call void @_ZN32pxrInternal_v0_24__pxrReserved__19TraceEventContainer8AllocateEv(ptr noundef nonnull align 8 dereferenceable(32) %10)
  br label %25

25:                                               ; preds = %24, %4
  %26 = load ptr, ptr %9, align 8
  ret ptr %26
}

; Function Attrs: mustprogress nounwind uwtable
define linkonce_odr noundef i32 @_ZStanSt12memory_orderSt23__memory_order_modifier(i32 noundef %0, i32 noundef %1) #5 comdat {
  %3 = alloca i32, align 4
  %4 = alloca i32, align 4
  store i32 %0, ptr %3, align 4
  store i32 %1, ptr %4, align 4
  %5 = load i32, ptr %3, align 4
  %6 = load i32, ptr %4, align 4
  %7 = and i32 %5, %6
  ret i32 %7
}

; Function Attrs: mustprogress uwtable
define linkonce_odr noundef nonnull align 8 dereferenceable(32) ptr @_ZN32pxrInternal_v0_24__pxrReserved__14TraceEventList11EmplaceBackIJNS_10TraceEvent6EndTagERKNS_8TraceKeyERjEEERKS2_DpOT_(ptr noundef nonnull align 8 dereferenceable(160) %0, ptr noundef nonnull align 4 dereferenceable(4) %1, ptr noundef nonnull align 8 dereferenceable(8) %2, ptr noundef nonnull align 4 dereferenceable(4) %3) #4 comdat align 2 {
  %5 = alloca ptr, align 8
  %6 = alloca ptr, align 8
  %7 = alloca ptr, align 8
  %8 = alloca ptr, align 8
  store ptr %0, ptr %5, align 8
  store ptr %1, ptr %6, align 8
  store ptr %2, ptr %7, align 8
  store ptr %3, ptr %8, align 8
  %9 = load ptr, ptr %5, align 8
  %10 = getelementptr inbounds nuw %"class.pxrInternal_v0_24__pxrReserved__::TraceEventList", ptr %9, i32 0, i32 0
  %11 = load ptr, ptr %6, align 8
  %12 = load ptr, ptr %7, align 8
  %13 = load ptr, ptr %8, align 8
  %14 = call noundef nonnull align 8 dereferenceable(32) ptr @_ZN32pxrInternal_v0_24__pxrReserved__19TraceEventContainer12emplace_backIJNS_10TraceEvent6EndTagERKNS_8TraceKeyERjEEERS2_DpOT_(ptr noundef nonnull align 8 dereferenceable(32) %10, ptr noundef nonnull align 4 dereferenceable(4) %11, ptr noundef nonnull align 8 dereferenceable(8) %12, ptr noundef nonnull align 4 dereferenceable(4) %13)
  ret ptr %14
}

; Function Attrs: mustprogress nounwind uwtable
define linkonce_odr noundef ptr @_ZNKSt6atomicIPN32pxrInternal_v0_24__pxrReserved__14TraceEventListEE4loadESt12memory_order(ptr noundef nonnull align 8 dereferenceable(8) %0, i32 noundef %1) #5 comdat align 2 {
  %3 = alloca ptr, align 8
  %4 = alloca i32, align 4
  %5 = alloca i32, align 4
  %6 = alloca ptr, align 8
  %7 = alloca ptr, align 8
  %8 = alloca i32, align 4
  store ptr %0, ptr %7, align 8
  store i32 %1, ptr %8, align 4
  %9 = load ptr, ptr %7, align 8
  %10 = getelementptr inbounds nuw %"struct.std::atomic.8", ptr %9, i32 0, i32 0
  %11 = load i32, ptr %8, align 4
  store ptr %10, ptr %3, align 8
  store i32 %11, ptr %4, align 4
  %12 = load ptr, ptr %3, align 8
  %13 = load i32, ptr %4, align 4
  %14 = call noundef i32 @_ZStanSt12memory_orderSt23__memory_order_modifier(i32 noundef %13, i32 noundef 65535)
  store i32 %14, ptr %5, align 4
  %15 = load i32, ptr %4, align 4
  switch i32 %15, label %16 [
    i32 1, label %18
    i32 2, label %18
    i32 5, label %20
  ]

16:                                               ; preds = %2
  %17 = load atomic i64, ptr %12 monotonic, align 8
  store i64 %17, ptr %6, align 8
  br label %22

18:                                               ; preds = %2, %2
  %19 = load atomic i64, ptr %12 acquire, align 8
  store i64 %19, ptr %6, align 8
  br label %22

20:                                               ; preds = %2
  %21 = load atomic i64, ptr %12 seq_cst, align 8
  store i64 %21, ptr %6, align 8
  br label %22

22:                                               ; preds = %20, %18, %16
  %23 = load ptr, ptr %6, align 8
  ret ptr %23
}

; Function Attrs: mustprogress uwtable
define void @_ZN32pxrInternal_v0_24__pxrReserved__14TraceCollector14_PerThreadData9_EndScopeERKNS_8TraceKeyEj(ptr noundef nonnull align 8 dereferenceable(72) %0, ptr noundef nonnull align 8 dereferenceable(8) %1, i32 noundef %2) #4 align 2 {
  %4 = alloca ptr, align 8
  %5 = alloca ptr, align 8
  %6 = alloca i32, align 4
  %7 = alloca i32, align 4
  store ptr %0, ptr %4, align 8
  store ptr %1, ptr %5, align 8
  store i32 %2, ptr %6, align 4
  %8 = load ptr, ptr %4, align 8
  %9 = getelementptr inbounds nuw %"class.pxrInternal_v0_24__pxrReserved__::TraceCollector::_PerThreadData", ptr %8, i32 0, i32 1
  %10 = call noundef ptr @_ZNKSt6atomicIPN32pxrInternal_v0_24__pxrReserved__14TraceEventListEE4loadESt12memory_order(ptr noundef nonnull align 8 dereferenceable(8) %9, i32 noundef 2) #3
  store i32 0, ptr %7, align 4
  %11 = load ptr, ptr %5, align 8
  %12 = call noundef nonnull align 8 dereferenceable(32) ptr @_ZN32pxrInternal_v0_24__pxrReserved__14TraceEventList11EmplaceBackIJNS_10TraceEvent6EndTagERKNS_8TraceKeyERjEEERKS2_DpOT_(ptr noundef nonnull align 8 dereferenceable(160) %10, ptr noundef nonnull align 4 dereferenceable(4) %7, ptr noundef nonnull align 8 dereferenceable(8) %11, ptr noundef nonnull align 4 dereferenceable(4) %6)
  ret void
}