; Function Attrs: mustprogress uwtable
define void @_ZN32pxrInternal_v0_24__pxrReserved__14TraceCollector14_PerThreadData9_EndScopeERKNS_8TraceKeyEj(ptr nocapture noundef nonnull readonly align 8 dereferenceable(72) %0, ptr nocapture noundef nonnull readonly align 8 dereferenceable(8) %1, i32 noundef %2) local_unnamed_addr #3 align 2 {
  %4 = getelementptr inbounds nuw i8, ptr %0, i64 8
  %5 = load atomic i64, ptr %4 acquire, align 8
  %.0.i = inttoptr i64 %5 to ptr
  %6 = load ptr, ptr %.0.i, align 8
  %7 = getelementptr inbounds i8, ptr %6, i64 32
  store ptr %7, ptr %.0.i, align 8
  %8 = load i64, ptr %1, align 8
  store i64 %8, ptr %6, align 8
  %9 = getelementptr inbounds nuw i8, ptr %6, i64 8
  store i32 %2, ptr %9, align 8
  %10 = getelementptr inbounds nuw i8, ptr %6, i64 13
  store i8 1, ptr %10, align 1
  %11 = getelementptr inbounds nuw i8, ptr %6, i64 16
  %12 = tail call noundef i64 @llvm.x86.rdtsc()
  store i64 %12, ptr %11, align 8
  %13 = getelementptr inbounds nuw i8, ptr %.0.i, i64 16
  %14 = load ptr, ptr %13, align 8
  %15 = load ptr, ptr %14, align 8
  %16 = getelementptr inbounds i8, ptr %15, i64 32
  store ptr %16, ptr %14, align 8
  %17 = load ptr, ptr %13, align 8
  %18 = load ptr, ptr %17, align 8
  %19 = getelementptr inbounds nuw i8, ptr %17, i64 8
  %20 = load ptr, ptr %19, align 8
  %21 = icmp eq ptr %18, %20
  br i1 %21, label %22, label %_ZN32pxrInternal_v0_24__pxrReserved__14TraceEventList11EmplaceBackIJNS_10TraceEvent6EndTagERKNS_8TraceKeyERjEEERKS2_DpOT_.exit

22:                                               ; preds = %3
  tail call void @_ZN32pxrInternal_v0_24__pxrReserved__19TraceEventContainer8AllocateEv(ptr noundef nonnull align 8 dereferenceable(32) %.0.i)
  br label %_ZN32pxrInternal_v0_24__pxrReserved__14TraceEventList11EmplaceBackIJNS_10TraceEvent6EndTagERKNS_8TraceKeyERjEEERKS2_DpOT_.exit

_ZN32pxrInternal_v0_24__pxrReserved__14TraceEventList11EmplaceBackIJNS_10TraceEvent6EndTagERKNS_8TraceKeyERjEEERKS2_DpOT_.exit: ; preds = %3, %22
  ret void
}